target datalayout = "e-m:e-p270:32:32-p271:32:32-p272:64:64-i64:64-i128:128-f80:128-n8:16:32:64-S128"
target triple = "x86_64-pc-linux-gnu"

%"struct.Imf_3_4::TiledOutputFile::Data" = type <{ %"class.Imf_3_4::Header", i32, i8, [3 x i8], %"class.Imf_3_4::TileDescription", %"class.Imf_3_4::FrameBuffer", i64, i32, i32, i32, i32, i32, i32, i32, [4 x i8], ptr, ptr, %"class.Imf_3_4::TileOffsets", i32, [4 x i8], %"class.std::vector.11", i64, %"class.std::vector.16", i64, i64, %"class.std::map.21", %"struct.Imf_3_4::(anonymous namespace)::TileCoord", i32, [4 x i8] }>
%"class.Imf_3_4::Header" = type <{ %"class.std::map", i8, [7 x i8] }>
%"class.std::map" = type { %"class.std::_Rb_tree" }
%"class.std::_Rb_tree" = type { %"struct.std::_Rb_tree<Imf_3_4::Name, std::pair<const Imf_3_4::Name, Imf_3_4::Attribute *>, std::_Select1st<std::pair<const Imf_3_4::Name, Imf_3_4::Attribute *>>, std::less<Imf_3_4::Name>>::_Rb_tree_impl" }
%"struct.std::_Rb_tree<Imf_3_4::Name, std::pair<const Imf_3_4::Name, Imf_3_4::Attribute *>, std::_Select1st<std::pair<const Imf_3_4::Name, Imf_3_4::Attribute *>>, std::less<Imf_3_4::Name>>::_Rb_tree_impl" = type { [8 x i8], %"struct.std::_Rb_tree_header" }
%"struct.std::_Rb_tree_header" = type { %"struct.std::_Rb_tree_node_base", i64 }
%"struct.std::_Rb_tree_node_base" = type { i32, ptr, ptr, ptr }
%"class.Imf_3_4::TileDescription" = type { i32, i32, i32, i32 }
%"class.Imf_3_4::FrameBuffer" = type { %"class.std::map.3" }
%"class.std::map.3" = type { %"class.std::_Rb_tree.4" }
%"class.std::_Rb_tree.4" = type { %"struct.std::_Rb_tree<Imf_3_4::Name, std::pair<const Imf_3_4::Name, Imf_3_4::Slice>, std::_Select1st<std::pair<const Imf_3_4::Name, Imf_3_4::Slice>>, std::less<Imf_3_4::Name>>::_Rb_tree_impl" }
%"struct.std::_Rb_tree<Imf_3_4::Name, std::pair<const Imf_3_4::Name, Imf_3_4::Slice>, std::_Select1st<std::pair<const Imf_3_4::Name, Imf_3_4::Slice>>, std::less<Imf_3_4::Name>>::_Rb_tree_impl" = type { [8 x i8], %"struct.std::_Rb_tree_header" }
%"class.Imf_3_4::TileOffsets" = type { i32, i32, i32, %"class.std::vector" }
%"class.std::vector" = type { %"struct.std::_Vector_base" }
%"struct.std::_Vector_base" = type { %"struct.std::_Vector_base<std::vector<std::vector<unsigned long>>, std::allocator<std::vector<std::vector<unsigned long>>>>::_Vector_impl" }
%"struct.std::_Vector_base<std::vector<std::vector<unsigned long>>, std::allocator<std::vector<std::vector<unsigned long>>>>::_Vector_impl" = type { %"struct.std::_Vector_base<std::vector<std::vector<unsigned long>>, std::allocator<std::vector<std::vector<unsigned long>>>>::_Vector_impl_data" }
%"struct.std::_Vector_base<std::vector<std::vector<unsigned long>>, std::allocator<std::vector<std::vector<unsigned long>>>>::_Vector_impl_data" = type { ptr, ptr, ptr }
%"class.std::vector.11" = type { %"struct.std::_Vector_base.12" }
%"struct.std::_Vector_base.12" = type { %"struct.std::_Vector_base<Imf_3_4::(anonymous namespace)::TOutSliceInfo, std::allocator<Imf_3_4::(anonymous namespace)::TOutSliceInfo>>::_Vector_impl" }
%"struct.std::_Vector_base<Imf_3_4::(anonymous namespace)::TOutSliceInfo, std::allocator<Imf_3_4::(anonymous namespace)::TOutSliceInfo>>::_Vector_impl" = type { %"struct.std::_Vector_base<Imf_3_4::(anonymous namespace)::TOutSliceInfo, std::allocator<Imf_3_4::(anonymous namespace)::TOutSliceInfo>>::_Vector_impl_data" }
%"struct.std::_Vector_base<Imf_3_4::(anonymous namespace)::TOutSliceInfo, std::allocator<Imf_3_4::(anonymous namespace)::TOutSliceInfo>>::_Vector_impl_data" = type { ptr, ptr, ptr }
%"class.std::vector.16" = type { %"struct.std::_Vector_base.17" }
%"struct.std::_Vector_base.17" = type { %"struct.std::_Vector_base<Imf_3_4::(anonymous namespace)::TileBuffer *, std::allocator<Imf_3_4::(anonymous namespace)::TileBuffer *>>::_Vector_impl" }
%"struct.std::_Vector_base<Imf_3_4::(anonymous namespace)::TileBuffer *, std::allocator<Imf_3_4::(anonymous namespace)::TileBuffer *>>::_Vector_impl" = type { %"struct.std::_Vector_base<Imf_3_4::(anonymous namespace)::TileBuffer *, std::allocator<Imf_3_4::(anonymous namespace)::TileBuffer *>>::_Vector_impl_data" }
%"struct.std::_Vector_base<Imf_3_4::(anonymous namespace)::TileBuffer *, std::allocator<Imf_3_4::(anonymous namespace)::TileBuffer *>>::_Vector_impl_data" = type { ptr, ptr, ptr }
%"class.std::map.21" = type { %"class.std::_Rb_tree.22" }
%"class.std::_Rb_tree.22" = type { %"struct.std::_Rb_tree<Imf_3_4::(anonymous namespace)::TileCoord, std::pair<const Imf_3_4::(anonymous namespace)::TileCoord, Imf_3_4::(anonymous namespace)::BufferedTile *>, std::_Select1st<std::pair<const Imf_3_4::(anonymous namespace)::TileCoord, Imf_3_4::(anonymous namespace)::BufferedTile *>>, std::less<Imf_3_4::(anonymous namespace)::TileCoord>>::_Rb_tree_impl" }
%"struct.std::_Rb_tree<Imf_3_4::(anonymous namespace)::TileCoord, std::pair<const Imf_3_4::(anonymous namespace)::TileCoord, Imf_3_4::(anonymous namespace)::BufferedTile *>, std::_Select1st<std::pair<const Imf_3_4::(anonymous namespace)::TileCoord, Imf_3_4::(anonymous namespace)::BufferedTile *>>, std::less<Imf_3_4::(anonymous namespace)::TileCoord>>::_Rb_tree_impl" = type { [8 x i8], %"struct.std::_Rb_tree_header" }
%"struct.Imf_3_4::(anonymous namespace)::TileCoord" = type { i32, i32, i32, i32 }

@_ZTIN7Iex_3_46ArgExcE = external constant ptr
@.str.56 = private unnamed_addr constant [25 x i8] c"Invalid tile description\00", align 1

; Function Attrs: mustprogress uwtable
define internal { i64, i64 } @_ZN7Imf_3_415TiledOutputFile4Data13nextTileCoordERKNS_12_GLOBAL__N_19TileCoordE(ptr noundef nonnull align 8 dereferenceable(372) %0, ptr noundef nonnull align 4 dereferenceable(16) %1) #6 align 2 personality ptr @__gxx_personality_v0 {
  %3 = alloca %"struct.Imf_3_4::(anonymous namespace)::TileCoord", align 4
  %4 = alloca ptr, align 8
  %5 = alloca ptr, align 8
  %6 = alloca ptr, align 8
  %7 = alloca i32, align 4
  store ptr %0, ptr %4, align 8, !tbaa !12
  store ptr %1, ptr %5, align 8, !tbaa !90
  %8 = load ptr, ptr %4, align 8
  %9 = load ptr, ptr %5, align 8, !tbaa !90
  call void @llvm.memcpy.p0.p0.i64(ptr align 4 %3, ptr align 4 %9, i64 16, i1 false), !tbaa.struct !163
  %10 = getelementptr inbounds nuw %"struct.Imf_3_4::TiledOutputFile::Data", ptr %8, i32 0, i32 7
  %11 = load i32, ptr %10, align 8, !tbaa !149
  %12 = icmp eq i32 %11, 0
  br i1 %12, label %13, label %79

13:                                               ; preds = %2
  %14 = getelementptr inbounds nuw %"struct.Imf_3_4::(anonymous namespace)::TileCoord", ptr %3, i32 0, i32 0
  %15 = load i32, ptr %14, align 4, !tbaa !92
  %16 = add nsw i32 %15, 1
  store i32 %16, ptr %14, align 4, !tbaa !92
  %17 = getelementptr inbounds nuw %"struct.Imf_3_4::(anonymous namespace)::TileCoord", ptr %3, i32 0, i32 0
  %18 = load i32, ptr %17, align 4, !tbaa !92
  %19 = getelementptr inbounds nuw %"struct.Imf_3_4::TiledOutputFile::Data", ptr %8, i32 0, i32 15
  %20 = load ptr, ptr %19, align 8, !tbaa !63
  %21 = getelementptr inbounds nuw %"struct.Imf_3_4::(anonymous namespace)::TileCoord", ptr %3, i32 0, i32 2
  %22 = load i32, ptr %21, align 4, !tbaa !94
  %23 = sext i32 %22 to i64
  %24 = getelementptr inbounds i32, ptr %20, i64 %23
  %25 = load i32, ptr %24, align 4, !tbaa !14
  %26 = icmp sge i32 %18, %25
  br i1 %26, label %27, label %78

27:                                               ; preds = %13
  %28 = getelementptr inbounds nuw %"struct.Imf_3_4::(anonymous namespace)::TileCoord", ptr %3, i32 0, i32 0
  store i32 0, ptr %28, align 4, !tbaa !92
  %29 = getelementptr inbounds nuw %"struct.Imf_3_4::(anonymous namespace)::TileCoord", ptr %3, i32 0, i32 1
  %30 = load i32, ptr %29, align 4, !tbaa !93
  %31 = add nsw i32 %30, 1
  store i32 %31, ptr %29, align 4, !tbaa !93
  %32 = getelementptr inbounds nuw %"struct.Imf_3_4::(anonymous namespace)::TileCoord", ptr %3, i32 0, i32 1
  %33 = load i32, ptr %32, align 4, !tbaa !93
  %34 = getelementptr inbounds nuw %"struct.Imf_3_4::TiledOutputFile::Data", ptr %8, i32 0, i32 16
  %35 = load ptr, ptr %34, align 8, !tbaa !64
  %36 = getelementptr inbounds nuw %"struct.Imf_3_4::(anonymous namespace)::TileCoord", ptr %3, i32 0, i32 3
  %37 = load i32, ptr %36, align 4, !tbaa !95
  %38 = sext i32 %37 to i64
  %39 = getelementptr inbounds i32, ptr %35, i64 %38
  %40 = load i32, ptr %39, align 4, !tbaa !14
  %41 = icmp sge i32 %33, %40
  br i1 %41, label %42, label %77

42:                                               ; preds = %27
  %43 = getelementptr inbounds nuw %"struct.Imf_3_4::(anonymous namespace)::TileCoord", ptr %3, i32 0, i32 1
  store i32 0, ptr %43, align 4, !tbaa !93
  %44 = getelementptr inbounds nuw %"struct.Imf_3_4::TiledOutputFile::Data", ptr %8, i32 0, i32 4
  %45 = getelementptr inbounds nuw %"class.Imf_3_4::TileDescription", ptr %44, i32 0, i32 2
  %46 = load i32, ptr %45, align 8, !tbaa !172
  switch i32 %46, label %76 [
    i32 0, label %47
    i32 1, label %47
    i32 2, label %54
    i32 3, label %69
  ]

47:                                               ; preds = %42, %42
  %48 = getelementptr inbounds nuw %"struct.Imf_3_4::(anonymous namespace)::TileCoord", ptr %3, i32 0, i32 2
  %49 = load i32, ptr %48, align 4, !tbaa !94
  %50 = add nsw i32 %49, 1
  store i32 %50, ptr %48, align 4, !tbaa !94
  %51 = getelementptr inbounds nuw %"struct.Imf_3_4::(anonymous namespace)::TileCoord", ptr %3, i32 0, i32 3
  %52 = load i32, ptr %51, align 4, !tbaa !95
  %53 = add nsw i32 %52, 1
  store i32 %53, ptr %51, align 4, !tbaa !95
  br label %76

54:                                               ; preds = %42
  %55 = getelementptr inbounds nuw %"struct.Imf_3_4::(anonymous namespace)::TileCoord", ptr %3, i32 0, i32 2
  %56 = load i32, ptr %55, align 4, !tbaa !94
  %57 = add nsw i32 %56, 1
  store i32 %57, ptr %55, align 4, !tbaa !94
  %58 = getelementptr inbounds nuw %"struct.Imf_3_4::(anonymous namespace)::TileCoord", ptr %3, i32 0, i32 2
  %59 = load i32, ptr %58, align 4, !tbaa !94
  %60 = getelementptr inbounds nuw %"struct.Imf_3_4::TiledOutputFile::Data", ptr %8, i32 0, i32 12
  %61 = load i32, ptr %60, align 4, !tbaa !173
  %62 = icmp sge i32 %59, %61
  br i1 %62, label %63, label %68

63:                                               ; preds = %54
  %64 = getelementptr inbounds nuw %"struct.Imf_3_4::(anonymous namespace)::TileCoord", ptr %3, i32 0, i32 2
  store i32 0, ptr %64, align 4, !tbaa !94
  %65 = getelementptr inbounds nuw %"struct.Imf_3_4::(anonymous namespace)::TileCoord", ptr %3, i32 0, i32 3
  %66 = load i32, ptr %65, align 4, !tbaa !95
  %67 = add nsw i32 %66, 1
  store i32 %67, ptr %65, align 4, !tbaa !95
  br label %68

68:                                               ; preds = %63, %54
  br label %76

69:                                               ; preds = %42
  %70 = call ptr @__cxa_allocate_exception(i64 72) #3
  invoke void @_ZN7Iex_3_46ArgExcC1EPKc(ptr noundef nonnull align 8 dereferenceable(72) %70, ptr noundef @.str.56)
          to label %71 unwind label %72

71:                                               ; preds = %69
  call void @__cxa_throw(ptr %70, ptr @_ZTIN7Iex_3_46ArgExcE, ptr @_ZN7Iex_3_46ArgExcD1Ev) #20
  unreachable

72:                                               ; preds = %69
  %73 = landingpad { ptr, i32 }
          cleanup
  %74 = extractvalue { ptr, i32 } %73, 0
  store ptr %74, ptr %6, align 8
  %75 = extractvalue { ptr, i32 } %73, 1
  store i32 %75, ptr %7, align 4
  call void @__cxa_free_exception(ptr %70) #3
  br label %160

76:                                               ; preds = %42, %68, %47
  br label %77

77:                                               ; preds = %76, %27
  br label %78

78:                                               ; preds = %77, %13
  br label %158

79:                                               ; preds = %2
  %80 = getelementptr inbounds nuw %"struct.Imf_3_4::TiledOutputFile::Data", ptr %8, i32 0, i32 7
  %81 = load i32, ptr %80, align 8, !tbaa !149
  %82 = icmp eq i32 %81, 1
  br i1 %82, label %83, label %157

83:                                               ; preds = %79
  %84 = getelementptr inbounds nuw %"struct.Imf_3_4::(anonymous namespace)::TileCoord", ptr %3, i32 0, i32 0
  %85 = load i32, ptr %84, align 4, !tbaa !92
  %86 = add nsw i32 %85, 1
  store i32 %86, ptr %84, align 4, !tbaa !92
  %87 = getelementptr inbounds nuw %"struct.Imf_3_4::(anonymous namespace)::TileCoord", ptr %3, i32 0, i32 0
  %88 = load i32, ptr %87, align 4, !tbaa !92
  %89 = getelementptr inbounds nuw %"struct.Imf_3_4::TiledOutputFile::Data", ptr %8, i32 0, i32 15
  %90 = load ptr, ptr %89, align 8, !tbaa !63
  %91 = getelementptr inbounds nuw %"struct.Imf_3_4::(anonymous namespace)::TileCoord", ptr %3, i32 0, i32 2
  %92 = load i32, ptr %91, align 4, !tbaa !94
  %93 = sext i32 %92 to i64
  %94 = getelementptr inbounds i32, ptr %90, i64 %93
  %95 = load i32, ptr %94, align 4, !tbaa !14
  %96 = icmp sge i32 %88, %95
  br i1 %96, label %97, label %156

97:                                               ; preds = %83
  %98 = getelementptr inbounds nuw %"struct.Imf_3_4::(anonymous namespace)::TileCoord", ptr %3, i32 0, i32 0
  store i32 0, ptr %98, align 4, !tbaa !92
  %99 = getelementptr inbounds nuw %"struct.Imf_3_4::(anonymous namespace)::TileCoord", ptr %3, i32 0, i32 1
  %100 = load i32, ptr %99, align 4, !tbaa !93
  %101 = add nsw i32 %100, -1
  store i32 %101, ptr %99, align 4, !tbaa !93
  %102 = getelementptr inbounds nuw %"struct.Imf_3_4::(anonymous namespace)::TileCoord", ptr %3, i32 0, i32 1
  %103 = load i32, ptr %102, align 4, !tbaa !93
  %104 = icmp slt i32 %103, 0
  br i1 %104, label %105, label %155

105:                                              ; preds = %97
  %106 = getelementptr inbounds nuw %"struct.Imf_3_4::TiledOutputFile::Data", ptr %8, i32 0, i32 4
  %107 = getelementptr inbounds nuw %"class.Imf_3_4::TileDescription", ptr %106, i32 0, i32 2
  %108 = load i32, ptr %107, align 8, !tbaa !172
  switch i32 %108, label %138 [
    i32 0, label %109
    i32 1, label %109
    i32 2, label %116
    i32 3, label %131
  ]

109:                                              ; preds = %105, %105
  %110 = getelementptr inbounds nuw %"struct.Imf_3_4::(anonymous namespace)::TileCoord", ptr %3, i32 0, i32 2
  %111 = load i32, ptr %110, align 4, !tbaa !94
  %112 = add nsw i32 %111, 1
  store i32 %112, ptr %110, align 4, !tbaa !94
  %113 = getelementptr inbounds nuw %"struct.Imf_3_4::(anonymous namespace)::TileCoord", ptr %3, i32 0, i32 3
  %114 = load i32, ptr %113, align 4, !tbaa !95
  %115 = add nsw i32 %114, 1
  store i32 %115, ptr %113, align 4, !tbaa !95
  br label %138

116:                                              ; preds = %105
  %117 = getelementptr inbounds nuw %"struct.Imf_3_4::(anonymous namespace)::TileCoord", ptr %3, i32 0, i32 2
  %118 = load i32, ptr %117, align 4, !tbaa !94
  %119 = add nsw i32 %118, 1
  store i32 %119, ptr %117, align 4, !tbaa !94
  %120 = getelementptr inbounds nuw %"struct.Imf_3_4::(anonymous namespace)::TileCoord", ptr %3, i32 0, i32 2
  %121 = load i32, ptr %120, align 4, !tbaa !94
  %122 = getelementptr inbounds nuw %"struct.Imf_3_4::TiledOutputFile::Data", ptr %8, i32 0, i32 12
  %123 = load i32, ptr %122, align 4, !tbaa !173
  %124 = icmp sge i32 %121, %123
  br i1 %124, label %125, label %130

125:                                              ; preds = %116
  %126 = getelementptr inbounds nuw %"struct.Imf_3_4::(anonymous namespace)::TileCoord", ptr %3, i32 0, i32 2
  store i32 0, ptr %126, align 4, !tbaa !94
  %127 = getelementptr inbounds nuw %"struct.Imf_3_4::(anonymous namespace)::TileCoord", ptr %3, i32 0, i32 3
  %128 = load i32, ptr %127, align 4, !tbaa !95
  %129 = add nsw i32 %128, 1
  store i32 %129, ptr %127, align 4, !tbaa !95
  br label %130

130:                                              ; preds = %125, %116
  br label %138

131:                                              ; preds = %105
  %132 = call ptr @__cxa_allocate_exception(i64 72) #3
  invoke void @_ZN7Iex_3_46ArgExcC1EPKc(ptr noundef nonnull align 8 dereferenceable(72) %132, ptr noundef @.str.56)
          to label %133 unwind label %134

133:                                              ; preds = %131
  call void @__cxa_throw(ptr %132, ptr @_ZTIN7Iex_3_46ArgExcE, ptr @_ZN7Iex_3_46ArgExcD1Ev) #20
  unreachable

134:                                              ; preds = %131
  %135 = landingpad { ptr, i32 }
          cleanup
  %136 = extractvalue { ptr, i32 } %135, 0
  store ptr %136, ptr %6, align 8
  %137 = extractvalue { ptr, i32 } %135, 1
  store i32 %137, ptr %7, align 4
  call void @__cxa_free_exception(ptr %132) #3
  br label %160

138:                                              ; preds = %105, %130, %109
  %139 = getelementptr inbounds nuw %"struct.Imf_3_4::(anonymous namespace)::TileCoord", ptr %3, i32 0, i32 3
  %140 = load i32, ptr %139, align 4, !tbaa !95
  %141 = getelementptr inbounds nuw %"struct.Imf_3_4::TiledOutputFile::Data", ptr %8, i32 0, i32 13
  %142 = load i32, ptr %141, align 8, !tbaa !174
  %143 = icmp slt i32 %140, %142
  br i1 %143, label %144, label %154

144:                                              ; preds = %138
  %145 = getelementptr inbounds nuw %"struct.Imf_3_4::TiledOutputFile::Data", ptr %8, i32 0, i32 16
  %146 = load ptr, ptr %145, align 8, !tbaa !64
  %147 = getelementptr inbounds nuw %"struct.Imf_3_4::(anonymous namespace)::TileCoord", ptr %3, i32 0, i32 3
  %148 = load i32, ptr %147, align 4, !tbaa !95
  %149 = sext i32 %148 to i64
  %150 = getelementptr inbounds i32, ptr %146, i64 %149
  %151 = load i32, ptr %150, align 4, !tbaa !14
  %152 = sub nsw i32 %151, 1
  %153 = getelementptr inbounds nuw %"struct.Imf_3_4::(anonymous namespace)::TileCoord", ptr %3, i32 0, i32 1
  store i32 %152, ptr %153, align 4, !tbaa !93
  br label %154

154:                                              ; preds = %144, %138
  br label %155

155:                                              ; preds = %154, %97
  br label %156

156:                                              ; preds = %155, %83
  br label %157

157:                                              ; preds = %156, %79
  br label %158

158:                                              ; preds = %157, %78
  %159 = load { i64, i64 }, ptr %3, align 4
  ret { i64, i64 } %159

160:                                              ; preds = %134, %72
  %161 = load ptr, ptr %6, align 8
  %162 = load i32, ptr %7, align 4
  %163 = insertvalue { ptr, i32 } poison, ptr %161, 0
  %164 = insertvalue { ptr, i32 } %163, i32 %162, 1
  resume { ptr, i32 } %164
}