; Function Attrs: mustprogress uwtable
define internal fastcc { i64, i64 } @_ZN7Imf_3_415TiledOutputFile4Data13nextTileCoordERKNS_12_GLOBAL__N_19TileCoordE(ptr noundef nonnull readonly align 8 captures(none) dereferenceable(372) %0, i64 %.0.val, i64 %.8.val) unnamed_addr #5 align 2 personality ptr @__gxx_personality_v0 {
  %.sroa.0.sroa.0.0.extract.trunc = trunc i64 %.0.val to i32
  %.sroa.0.sroa.10.0.extract.shift = lshr i64 %.0.val, 32
  %.sroa.0.sroa.10.0.extract.trunc = trunc nuw i64 %.sroa.0.sroa.10.0.extract.shift to i32
  %2 = getelementptr inbounds nuw i8, ptr %0, i64 136
  %3 = load i32, ptr %2, align 8, !tbaa !127
  switch i32 %3, label %69 [
    i32 0, label %4
    i32 1, label %33
  ]

4:                                                ; preds = %1
  %5 = add nsw i32 %.sroa.0.sroa.0.0.extract.trunc, 1
  %6 = getelementptr inbounds nuw i8, ptr %0, i64 168
  %7 = load ptr, ptr %6, align 8, !tbaa !89
  %sext90 = shl i64 %.8.val, 32
  %8 = ashr exact i64 %sext90, 30
  %9 = getelementptr inbounds i8, ptr %7, i64 %8
  %10 = load i32, ptr %9, align 4, !tbaa !129
  %.not91 = icmp slt i32 %5, %10
  br i1 %.not91, label %69, label %11

11:                                               ; preds = %4
  %12 = add nsw i32 %.sroa.0.sroa.10.0.extract.trunc, 1
  %13 = getelementptr inbounds nuw i8, ptr %0, i64 176
  %14 = load ptr, ptr %13, align 8, !tbaa !90
  %15 = ashr i64 %.8.val, 32
  %16 = getelementptr inbounds i32, ptr %14, i64 %15
  %17 = load i32, ptr %16, align 4, !tbaa !129
  %.not93 = icmp slt i32 %12, %17
  br i1 %.not93, label %69, label %18

18:                                               ; preds = %11
  %19 = getelementptr inbounds nuw i8, ptr %0, i64 72
  %20 = load i32, ptr %19, align 8, !tbaa !147
  switch i32 %20, label %69 [
    i32 0, label %21
    i32 1, label %21
    i32 2, label %24
    i32 3, label %28
  ]

21:                                               ; preds = %18, %18
  %22 = add i64 %.8.val, 1
  %.sroa.18.8.insert.ext = and i64 %22, 4294967295
  %23 = and i64 %.8.val, -4294967296
  %.sroa.18.12.insert.shift = add i64 %23, 4294967296
  %.sroa.18.12.insert.insert = or disjoint i64 %.sroa.18.8.insert.ext, %.sroa.18.12.insert.shift
  br label %69

24:                                               ; preds = %18
  %25 = add i64 %.8.val, 1
  %.sroa.18.8.insert.ext22 = and i64 %25, 4294967295
  %.sroa.18.8.insert.mask23 = and i64 %.8.val, -4294967296
  %.sroa.18.8.insert.insert24 = or disjoint i64 %.sroa.18.8.insert.ext22, %.sroa.18.8.insert.mask23
  %.sroa.18.8.extract.trunc26 = trunc i64 %25 to i32
  %26 = getelementptr inbounds nuw i8, ptr %0, i64 156
  %27 = load i32, ptr %26, align 4, !tbaa !148
  %.not95 = icmp sgt i32 %27, %.sroa.18.8.extract.trunc26
  %.sroa.18.12.insert.shift57 = add i64 %.sroa.18.8.insert.mask23, 4294967296
  %spec.select = select i1 %.not95, i64 %.sroa.18.8.insert.insert24, i64 %.sroa.18.12.insert.shift57
  br label %69

28:                                               ; preds = %18
  %29 = tail call ptr @__cxa_allocate_exception(i64 72) #25
  invoke void @_ZN7Iex_3_46ArgExcC1EPKc(ptr noundef nonnull align 8 dereferenceable(72) %29, ptr noundef nonnull @.str.56)
          to label %30 unwind label %31

30:                                               ; preds = %28
  tail call void @__cxa_throw(ptr nonnull %29, ptr nonnull @_ZTIN7Iex_3_46ArgExcE, ptr nonnull @_ZN7Iex_3_46ArgExcD1Ev) #30
  unreachable

31:                                               ; preds = %28
  %32 = landingpad { ptr, i32 }
          cleanup
  br label %70

33:                                               ; preds = %1
  %34 = add nsw i32 %.sroa.0.sroa.0.0.extract.trunc, 1
  %35 = getelementptr inbounds nuw i8, ptr %0, i64 168
  %36 = load ptr, ptr %35, align 8, !tbaa !89
  %sext = shl i64 %.8.val, 32
  %37 = ashr exact i64 %sext, 30
  %38 = getelementptr inbounds i8, ptr %36, i64 %37
  %39 = load i32, ptr %38, align 4, !tbaa !129
  %.not = icmp slt i32 %34, %39
  br i1 %.not, label %69, label %40

40:                                               ; preds = %33
  %41 = add nsw i32 %.sroa.0.sroa.10.0.extract.trunc, -1
  %42 = icmp slt i32 %.sroa.0.sroa.10.0.extract.trunc, 1
  br i1 %42, label %43, label %69

43:                                               ; preds = %40
  %44 = getelementptr inbounds nuw i8, ptr %0, i64 72
  %45 = load i32, ptr %44, align 8, !tbaa !147
  switch i32 %45, label %58 [
    i32 0, label %46
    i32 1, label %46
    i32 2, label %49
    i32 3, label %53
  ]

46:                                               ; preds = %43, %43
  %47 = add i64 %.8.val, 1
  %.sroa.18.8.insert.ext35 = and i64 %47, 4294967295
  %48 = and i64 %.8.val, -4294967296
  %.sroa.18.12.insert.shift65 = add i64 %48, 4294967296
  %.sroa.18.12.insert.insert67 = or disjoint i64 %.sroa.18.8.insert.ext35, %.sroa.18.12.insert.shift65
  br label %58

49:                                               ; preds = %43
  %50 = add i64 %.8.val, 1
  %.sroa.18.8.insert.ext41 = and i64 %50, 4294967295
  %.sroa.18.8.insert.mask42 = and i64 %.8.val, -4294967296
  %.sroa.18.8.insert.insert43 = or disjoint i64 %.sroa.18.8.insert.ext41, %.sroa.18.8.insert.mask42
  %.sroa.18.8.extract.trunc45 = trunc i64 %50 to i32
  %51 = getelementptr inbounds nuw i8, ptr %0, i64 156
  %52 = load i32, ptr %51, align 4, !tbaa !148
  %.not88 = icmp sgt i32 %52, %.sroa.18.8.extract.trunc45
  %.sroa.18.12.insert.shift73 = add i64 %.sroa.18.8.insert.mask42, 4294967296
  %spec.select1 = select i1 %.not88, i64 %.sroa.18.8.insert.insert43, i64 %.sroa.18.12.insert.shift73
  br label %58

53:                                               ; preds = %43
  %54 = tail call ptr @__cxa_allocate_exception(i64 72) #25
  invoke void @_ZN7Iex_3_46ArgExcC1EPKc(ptr noundef nonnull align 8 dereferenceable(72) %54, ptr noundef nonnull @.str.56)
          to label %55 unwind label %56

55:                                               ; preds = %53
  tail call void @__cxa_throw(ptr nonnull %54, ptr nonnull @_ZTIN7Iex_3_46ArgExcE, ptr nonnull @_ZN7Iex_3_46ArgExcD1Ev) #30
  unreachable

56:                                               ; preds = %53
  %57 = landingpad { ptr, i32 }
          cleanup
  br label %70

58:                                               ; preds = %49, %46, %43
  %.sroa.18.1 = phi i64 [ %.8.val, %43 ], [ %.sroa.18.12.insert.insert67, %46 ], [ %spec.select1, %49 ]
  %.sroa.18.12.extract.shift77 = lshr i64 %.sroa.18.1, 32
  %.sroa.18.12.extract.trunc78 = trunc nuw i64 %.sroa.18.12.extract.shift77 to i32
  %59 = getelementptr inbounds nuw i8, ptr %0, i64 160
  %60 = load i32, ptr %59, align 8, !tbaa !149
  %61 = icmp sgt i32 %60, %.sroa.18.12.extract.trunc78
  br i1 %61, label %62, label %69

62:                                               ; preds = %58
  %63 = getelementptr inbounds nuw i8, ptr %0, i64 176
  %64 = load ptr, ptr %63, align 8, !tbaa !90
  %65 = ashr i64 %.sroa.18.1, 32
  %66 = getelementptr inbounds i32, ptr %64, i64 %65
  %67 = load i32, ptr %66, align 4, !tbaa !129
  %68 = add nsw i32 %67, -1
  br label %69

69:                                               ; preds = %24, %1, %40, %62, %58, %33, %4, %18, %21, %11
  %.sroa.18.0 = phi i64 [ %.8.val, %18 ], [ %.sroa.18.12.insert.insert, %21 ], [ %.8.val, %11 ], [ %.8.val, %4 ], [ %.sroa.18.1, %62 ], [ %.sroa.18.1, %58 ], [ %.8.val, %40 ], [ %.8.val, %33 ], [ %.8.val, %1 ], [ %spec.select, %24 ]
  %.sroa.0.sroa.0.0 = phi i32 [ 0, %18 ], [ 0, %21 ], [ 0, %11 ], [ %5, %4 ], [ 0, %62 ], [ 0, %58 ], [ 0, %40 ], [ %34, %33 ], [ %.sroa.0.sroa.0.0.extract.trunc, %1 ], [ 0, %24 ]
  %.sroa.0.sroa.10.0 = phi i32 [ 0, %18 ], [ 0, %21 ], [ %12, %11 ], [ %.sroa.0.sroa.10.0.extract.trunc, %4 ], [ %68, %62 ], [ %41, %58 ], [ %41, %40 ], [ %.sroa.0.sroa.10.0.extract.trunc, %33 ], [ %.sroa.0.sroa.10.0.extract.trunc, %1 ], [ 0, %24 ]
  %.sroa.0.sroa.10.0.insert.ext = zext i32 %.sroa.0.sroa.10.0 to i64
  %.sroa.0.sroa.10.0.insert.shift = shl nuw i64 %.sroa.0.sroa.10.0.insert.ext, 32
  %.sroa.0.sroa.0.0.insert.ext = zext i32 %.sroa.0.sroa.0.0 to i64
  %.sroa.0.sroa.0.0.insert.insert = or disjoint i64 %.sroa.0.sroa.10.0.insert.shift, %.sroa.0.sroa.0.0.insert.ext
  %.fca.0.insert = insertvalue { i64, i64 } poison, i64 %.sroa.0.sroa.0.0.insert.insert, 0
  %.fca.1.insert = insertvalue { i64, i64 } %.fca.0.insert, i64 %.sroa.18.0, 1
  ret { i64, i64 } %.fca.1.insert

70:                                               ; preds = %56, %31
  %.sink = phi ptr [ %54, %56 ], [ %29, %31 ]
  %.pn = phi { ptr, i32 } [ %57, %56 ], [ %32, %31 ]
  tail call void @__cxa_free_exception(ptr nonnull %.sink) #25
  resume { ptr, i32 } %.pn
}